; Function Attrs: mustprogress nofree norecurse nosync nounwind willreturn memory(argmem: read) uwtable
define hidden { <2 x float>, float } @_ZNK2cv5kinfu17HashTSDFVolumeCPU21volumeUnitIdxToVolumeERKNS_3VecIiLi3EEE(ptr noundef nonnull readonly align 8 captures(none) dereferenceable(404) %0, ptr noundef nonnull readonly align 4 captures(none) dereferenceable(12) %1) local_unnamed_addr #11 align 2 {
  %3 = load i32, ptr %1, align 4, !tbaa !24
  %4 = sitofp i32 %3 to float
  %5 = getelementptr inbounds nuw i8, ptr %0, i64 104
  %6 = load float, ptr %5, align 8, !tbaa !22
  %7 = fmul float %6, %4
  %8 = getelementptr inbounds nuw i8, ptr %1, i64 4
  %9 = load i32, ptr %8, align 4, !tbaa !24
  %10 = sitofp i32 %9 to float
  %11 = fmul float %6, %10
  %12 = getelementptr inbounds nuw i8, ptr %1, i64 8
  %13 = load i32, ptr %12, align 4, !tbaa !24
  %14 = sitofp i32 %13 to float
  %15 = fmul float %6, %14
  %.sroa.0.0.vec.insert = insertelement <2 x float> poison, float %7, i64 0
  %.sroa.0.4.vec.insert = insertelement <2 x float> %.sroa.0.0.vec.insert, float %11, i64 1
  %.fca.0.insert = insertvalue { <2 x float>, float } poison, <2 x float> %.sroa.0.4.vec.insert, 0
  %.fca.1.insert = insertvalue { <2 x float>, float } %.fca.0.insert, float %15, 1
  ret { <2 x float>, float } %.fca.1.insert
}